target datalayout = "e-m:e-p270:32:32-p271:32:32-p272:64:64-i64:64-i128:128-f80:128-n8:16:32:64-S128"
target triple = "x86_64-pc-linux-gnu"

; Function Attrs: nounwind uwtable
define internal void @filter_dblp(ptr noundef %0, ptr noundef %1, i32 noundef %2, i32 noundef %3, float noundef %4) #0 {
  %6 = alloca ptr, align 8
  %7 = alloca ptr, align 8
  %8 = alloca i32, align 4
  %9 = alloca i32, align 4
  %10 = alloca float, align 4
  %11 = alloca i32, align 4
  %12 = alloca i32, align 4
  %13 = alloca ptr, align 8
  %14 = alloca ptr, align 8
  %15 = alloca double, align 8
  store ptr %0, ptr %6, align 8, !tbaa !50
  store ptr %1, ptr %7, align 8, !tbaa !50
  store i32 %2, ptr %8, align 4, !tbaa !51
  store i32 %3, ptr %9, align 4, !tbaa !51
  store float %4, ptr %10, align 4, !tbaa !52
  call void @llvm.lifetime.start.p0(i64 4, ptr %11) #4
  call void @llvm.lifetime.start.p0(i64 4, ptr %12) #4
  store i32 0, ptr %12, align 4, !tbaa !51
  br label %16

16:                                               ; preds = %58, %5
  %17 = load i32, ptr %12, align 4, !tbaa !51
  %18 = load i32, ptr %9, align 4, !tbaa !51
  %19 = icmp slt i32 %17, %18
  br i1 %19, label %20, label %61

20:                                               ; preds = %16
  call void @llvm.lifetime.start.p0(i64 8, ptr %13) #4
  %21 = load ptr, ptr %7, align 8, !tbaa !50
  %22 = load i32, ptr %12, align 4, !tbaa !51
  %23 = sext i32 %22 to i64
  %24 = getelementptr inbounds ptr, ptr %21, i64 %23
  %25 = load ptr, ptr %24, align 8, !tbaa !53
  store ptr %25, ptr %13, align 8, !tbaa !59
  call void @llvm.lifetime.start.p0(i64 8, ptr %14) #4
  %26 = load ptr, ptr %6, align 8, !tbaa !50
  %27 = load i32, ptr %12, align 4, !tbaa !51
  %28 = sext i32 %27 to i64
  %29 = getelementptr inbounds ptr, ptr %26, i64 %28
  %30 = load ptr, ptr %29, align 8, !tbaa !53
  store ptr %30, ptr %14, align 8, !tbaa !59
  store i32 0, ptr %11, align 4, !tbaa !51
  br label %31

31:                                               ; preds = %54, %20
  %32 = load i32, ptr %11, align 4, !tbaa !51
  %33 = load i32, ptr %8, align 4, !tbaa !51
  %34 = icmp slt i32 %32, %33
  br i1 %34, label %35, label %57

35:                                               ; preds = %31
  call void @llvm.lifetime.start.p0(i64 8, ptr %15) #4
  %36 = load ptr, ptr %13, align 8, !tbaa !59
  %37 = load i32, ptr %11, align 4, !tbaa !51
  %38 = sext i32 %37 to i64
  %39 = getelementptr inbounds double, ptr %36, i64 %38
  %40 = load double, ptr %39, align 8, !tbaa !60
  %41 = fmul nsz double %40, 0x3FF921FB54442D18
  store double %41, ptr %15, align 8, !tbaa !60
  %42 = load double, ptr %15, align 8, !tbaa !60
  %43 = load float, ptr %10, align 4, !tbaa !52
  %44 = fpext nsz float %43 to double
  %45 = load double, ptr %15, align 8, !tbaa !60
  %46 = fmul nsz double %45, 4.000000e+00
  %47 = call nsz double @llvm.sin.f64(double %46)
  %48 = call nsz double @llvm.fmuladd.f64(double %44, double %47, double %42)
  %49 = call nsz double @llvm.sin.f64(double %48)
  %50 = load ptr, ptr %14, align 8, !tbaa !59
  %51 = load i32, ptr %11, align 4, !tbaa !51
  %52 = sext i32 %51 to i64
  %53 = getelementptr inbounds double, ptr %50, i64 %52
  store double %49, ptr %53, align 8, !tbaa !60
  call void @llvm.lifetime.end.p0(i64 8, ptr %15) #4
  br label %54

54:                                               ; preds = %35
  %55 = load i32, ptr %11, align 4, !tbaa !51
  %56 = add nsw i32 %55, 1
  store i32 %56, ptr %11, align 4, !tbaa !51
  br label %31, !llvm.loop !66

57:                                               ; preds = %31
  call void @llvm.lifetime.end.p0(i64 8, ptr %14) #4
  call void @llvm.lifetime.end.p0(i64 8, ptr %13) #4
  br label %58

58:                                               ; preds = %57
  %59 = load i32, ptr %12, align 4, !tbaa !51
  %60 = add nsw i32 %59, 1
  store i32 %60, ptr %12, align 4, !tbaa !51
  br label %16, !llvm.loop !67

61:                                               ; preds = %16
  call void @llvm.lifetime.end.p0(i64 4, ptr %12) #4
  call void @llvm.lifetime.end.p0(i64 4, ptr %11) #4
  ret void
}