; Function Attrs: nofree norecurse nosync nounwind memory(readwrite, inaccessiblemem: none) uwtable
define internal void @filter_dblp(ptr noundef readonly captures(none) %0, ptr noundef readonly captures(none) %1, i32 noundef %2, i32 noundef %3, float noundef %4) #3 {
  %6 = icmp sgt i32 %3, 0
  br i1 %6, label %.lr.ph20, label %._crit_edge21

.lr.ph20:                                         ; preds = %5
  %7 = icmp sgt i32 %2, 0
  %8 = fpext nsz float %4 to double
  br i1 %7, label %.lr.ph.us.preheader, label %._crit_edge21

.lr.ph.us.preheader:                              ; preds = %.lr.ph20
  %wide.trip.count27 = zext nneg i32 %3 to i64
  %wide.trip.count = zext nneg i32 %2 to i64
  br label %.lr.ph.us

.lr.ph.us:                                        ; preds = %.lr.ph.us.preheader, %._crit_edge.us
  %indvars.iv24 = phi i64 [ 0, %.lr.ph.us.preheader ], [ %indvars.iv.next25, %._crit_edge.us ]
  %9 = getelementptr inbounds nuw ptr, ptr %1, i64 %indvars.iv24
  %10 = load ptr, ptr %9, align 8, !tbaa !47
  %11 = getelementptr inbounds nuw ptr, ptr %0, i64 %indvars.iv24
  %12 = load ptr, ptr %11, align 8, !tbaa !47
  br label %13

13:                                               ; preds = %.lr.ph.us, %13
  %indvars.iv = phi i64 [ 0, %.lr.ph.us ], [ %indvars.iv.next, %13 ]
  %14 = getelementptr inbounds nuw double, ptr %10, i64 %indvars.iv
  %15 = load double, ptr %14, align 8, !tbaa !52
  %16 = fmul nsz double %15, 0x3FF921FB54442D18
  %17 = fmul nsz double %16, 4.000000e+00
  %18 = tail call nsz double @llvm.sin.f64(double %17)
  %19 = tail call nsz double @llvm.fmuladd.f64(double %8, double %18, double %16)
  %20 = tail call nsz double @llvm.sin.f64(double %19)
  %21 = getelementptr inbounds nuw double, ptr %12, i64 %indvars.iv
  store double %20, ptr %21, align 8, !tbaa !52
  %indvars.iv.next = add nuw nsw i64 %indvars.iv, 1
  %exitcond.not = icmp eq i64 %indvars.iv.next, %wide.trip.count
  br i1 %exitcond.not, label %._crit_edge.us, label %13, !llvm.loop !58

._crit_edge.us:                                   ; preds = %13
  %indvars.iv.next25 = add nuw nsw i64 %indvars.iv24, 1
  %exitcond28.not = icmp eq i64 %indvars.iv.next25, %wide.trip.count27
  br i1 %exitcond28.not, label %._crit_edge21, label %.lr.ph.us, !llvm.loop !59

._crit_edge21:                                    ; preds = %._crit_edge.us, %.lr.ph20, %5
  ret void
}